(dp0
S'<pad>'
p1
I0
sV!
p2
I2
sV"
p3
I3
sV'
p4
I4
sV&
p5
I5
sV)
p6
I6
sV(
p7
I7
sV+
p8
I8
sV-
p9
I9
sV,
p10
I10
sV/
p11
I11
sV.
p12
I12
sV1
p13
I13
sV3
p14
I14
sV2
p15
I15
sV5
p16
I16
sV4
p17
I17
sV;
p18
I18
sV:
p19
I19
sV?
p20
I20
sV@
p21
I21
sV[
p22
I22
sV]
p23
I23
sVa
p24
I24
sV`
p25
I25
sVc
p26
I26
sVb
p27
I27
sVe
p28
I28
sVd
p29
I29
sVg
p30
I30
sVf
p31
I31
sVi
p32
I32
sVh
p33
I33
sVk
p34
I34
sVj
p35
I35
sVm
p36
I36
sVl
p37
I37
sVo
p38
I38
sVn
p39
I39
sVq
p40
I40
sVp
p41
I41
sVs
p42
I42
sVr
p43
I43
sVu
p44
I44
sVt
p45
I45
sVw
p46
I46
sVv
p47
I47
sVy
p48
I48
sVx
p49
I49
sVz
p50
I50
sS'<unk>'
p51
I1
s.