(dp0
S'<pad>'
p1
I0
sV!
p2
I2
sV"
p3
I3
sV'
p4
I4
sV&
p5
I5
sV)
p6
I6
sV(
p7
I7
sV+
p8
I8
sV*
p9
I9
sV-
p10
I10
sV,
p11
I11
sV/
p12
I12
sV.
p13
I13
sV1
p14
I14
sV0
p15
I15
sV3
p16
I16
sV2
p17
I17
sV5
p18
I18
sV4
p19
I19
sV7
p20
I20
sV6
p21
I21
sV9
p22
I22
sV8
p23
I23
sV;
p24
I24
sV:
p25
I25
sV<
p26
I26
sV?
p27
I27
sV@
p28
I28
sV[
p29
I29
sV]
p30
I30
sVa
p31
I31
sV`
p32
I32
sVc
p33
I33
sVb
p34
I34
sVe
p35
I35
sVd
p36
I36
sVg
p37
I37
sVf
p38
I38
sVi
p39
I39
sVh
p40
I40
sVk
p41
I41
sVj
p42
I42
sVm
p43
I43
sVl
p44
I44
sVo
p45
I45
sVn
p46
I46
sVq
p47
I47
sVp
p48
I48
sVs
p49
I49
sVr
p50
I50
sVu
p51
I51
sVt
p52
I52
sVw
p53
I53
sVv
p54
I54
sVy
p55
I55
sVx
p56
I56
sVz
p57
I57
sS'<unk>'
p58
I1
s.